; Function Attrs: nounwind uwtable
define void @av_frame_free(ptr noundef %0) local_unnamed_addr #0 {
  %.not = icmp eq ptr %0, null
  br i1 %.not, label %5, label %2

2:                                                ; preds = %1
  %3 = load ptr, ptr %0, align 8, !tbaa !28
  %.not5 = icmp eq ptr %3, null
  br i1 %.not5, label %5, label %4

4:                                                ; preds = %2
  tail call void @av_frame_unref(ptr noundef nonnull %3)
  tail call void @av_freep(ptr noundef nonnull %0) #8
  br label %5

5:                                                ; preds = %1, %2, %4
  ret void
}